; Function Attrs: mustprogress nounwind uwtable
define internal void @_ZN7Imf_3_412_GLOBAL__N_116CompressionStashD2Ev(ptr noundef nonnull align 8 dereferenceable(88) %0) unnamed_addr #4 align 2 personality ptr @__gxx_personality_v0 {
  store atomic i64 0, ptr @_ZN7Imf_3_412_GLOBAL__N_17s_stashE.0 seq_cst, align 8
  %2 = tail call noundef i32 @pthread_mutex_lock(ptr noundef nonnull align 8 dereferenceable(40) %0) #29
  %.not.i = icmp eq i32 %2, 0
  br i1 %.not.i, label %4, label %3

3:                                                ; preds = %1
  invoke void @_ZSt20__throw_system_errori(i32 noundef %2) #30
          to label %.noexc unwind label %11

.noexc:                                           ; preds = %3
  unreachable

4:                                                ; preds = %1
  %5 = getelementptr inbounds nuw i8, ptr %0, i64 56
  %.val.i.i = load ptr, ptr %5, align 8, !tbaa !35
  tail call fastcc void @_ZNSt8_Rb_treeIPKvSt4pairIKS1_N7Imf_3_412_GLOBAL__N_117CompressionRecordEESt10_Select1stIS7_ESt4lessIS1_ESaIS7_EE8_M_eraseEPSt13_Rb_tree_nodeIS7_E(ptr noundef %.val.i.i)
  %6 = getelementptr inbounds nuw i8, ptr %0, i64 48
  store ptr null, ptr %5, align 8, !tbaa !35
  %7 = getelementptr inbounds nuw i8, ptr %0, i64 64
  store ptr %6, ptr %7, align 8, !tbaa !3
  %8 = getelementptr inbounds nuw i8, ptr %0, i64 72
  store ptr %6, ptr %8, align 8, !tbaa !12
  %9 = getelementptr inbounds nuw i8, ptr %0, i64 80
  store i64 0, ptr %9, align 8, !tbaa !13
  %10 = tail call noundef i32 @pthread_mutex_unlock(ptr noundef nonnull align 8 dereferenceable(40) %0) #29
  %.val = load ptr, ptr %5, align 8, !tbaa !35
  tail call fastcc void @_ZNSt8_Rb_treeIPKvSt4pairIKS1_N7Imf_3_412_GLOBAL__N_117CompressionRecordEESt10_Select1stIS7_ESt4lessIS1_ESaIS7_EE8_M_eraseEPSt13_Rb_tree_nodeIS7_E(ptr noundef %.val)
  ret void

11:                                               ; preds = %3
  %12 = landingpad { ptr, i32 }
          catch ptr null
  %13 = extractvalue { ptr, i32 } %12, 0
  tail call void @__clang_call_terminate(ptr %13) #31
  unreachable
}